target datalayout = "e-m:e-p270:32:32-p271:32:32-p272:64:64-i64:64-i128:128-f80:128-n8:16:32:64-S128"
target triple = "x86_64-pc-linux-gnu"

%class.LibRaw = type { ptr, %struct.libraw_data_t, ptr, %struct.libraw_internal_data_t, [2048 x %struct.decode], ptr, ptr, [10 x %struct.tiff_ifd_t], %class.libraw_memmgr, %struct.libraw_callbacks_t, { i64, i64 }, { i64, i64 }, { i64, i64 }, ptr, ptr, ptr, i64, ptr, ptr, ptr, ptr }
%struct.libraw_data_t = type { ptr, %struct.libraw_image_sizes_t, %struct.libraw_iparams_t, %struct.libraw_lensinfo_t, %struct.libraw_makernotes_t, %struct.libraw_shootinginfo_t, %struct.libraw_output_params_t, %struct.libraw_raw_unpack_params_t, i32, i32, %struct.libraw_colordata_t, %struct.libraw_imgother_t, %struct.libraw_thumbnail_t, %struct.libraw_thumbnail_list_t, %struct.libraw_rawdata_t, ptr }
%struct.libraw_image_sizes_t = type { i16, i16, i16, i16, i16, i16, i16, i16, i32, double, i32, [8 x [4 x i32]], i16, [2 x %struct.libraw_raw_inset_crop_t] }
%struct.libraw_raw_inset_crop_t = type { i16, i16, i16, i16 }
%struct.libraw_iparams_t = type { [4 x i8], [64 x i8], [64 x i8], [64 x i8], [64 x i8], [64 x i8], i32, i32, i32, i32, i32, i32, [6 x [6 x i8]], [6 x [6 x i8]], [5 x i8], i32, ptr }
%struct.libraw_lensinfo_t = type { float, float, float, float, float, [128 x i8], [128 x i8], [128 x i8], [128 x i8], i16, %struct.libraw_nikonlens_t, %struct.libraw_dnglens_t, %struct.libraw_makernotes_lens_t }
%struct.libraw_nikonlens_t = type { float, i8, i8, i8, i8 }
%struct.libraw_dnglens_t = type { float, float, float, float }
%struct.libraw_makernotes_lens_t = type { i64, [128 x i8], i16, i16, i64, i16, i16, [64 x i8], i16, [16 x i8], [16 x i8], float, float, float, float, float, float, float, float, float, float, float, float, float, float, float, i64, [128 x i8], i64, [128 x i8], i64, [128 x i8], i16, float }
%struct.libraw_makernotes_t = type { %struct.libraw_canon_makernotes_t, %struct.libraw_nikon_makernotes_t, %struct.libraw_hasselblad_makernotes_t, %struct.libraw_fuji_info_t, %struct.libraw_olympus_makernotes_t, %struct.libraw_sony_info_t, %struct.libraw_kodak_makernotes_t, %struct.libraw_panasonic_makernotes_t, %struct.libraw_pentax_makernotes_t, %struct.libraw_p1_makernotes_t, %struct.libraw_ricoh_makernotes_t, %struct.libraw_samsung_makernotes_t, %struct.libraw_metadata_common_t }
%struct.libraw_canon_makernotes_t = type { i32, i32, i32, i32, [4 x i32], i32, [4 x i32], i16, i16, i8, i16, i16, i16, i16, i16, i16, i16, i16, i16, i16, i16, i16, i16, i32, float, i16, i16, i16, i32, i16, i32, i32, i16, i32, %struct.libraw_area_t, %struct.libraw_area_t, %struct.libraw_area_t, %struct.libraw_area_t, %struct.libraw_area_t, [2 x i16] }
%struct.libraw_area_t = type { i16, i16, i16, i16 }
%struct.libraw_nikon_makernotes_t = type { double, i16, i16, [7 x i8], i8, i8, [13 x i8], [20 x i8], [4 x i8], [4 x i8], [4 x i8], i8, i8, i8, i8, i8, [2 x i8], i8, i8, i8, i8, i8, [4 x i8], [4 x i8], i8, i16, i32, i32, i32, i32, [4 x double], i8, i8, i8, i32, i32, i32, i8, [4 x i16], i16, %struct.libraw_sensor_highspeed_crop_t, i16, i16, i16, i32, [20 x i8], [20 x i8], i32, i16, double, double, double }
%struct.libraw_sensor_highspeed_crop_t = type { i16, i16, i16, i16 }
%struct.libraw_hasselblad_makernotes_t = type { i32, double, [8 x i8], [64 x i8], [64 x i8], i32, i32, i32, i32, [32 x i8], [64 x i8], i32, [2 x i32], [2 x i32], [4 x [3 x double]] }
%struct.libraw_fuji_info_t = type { float, i16, i16, i16, i16, i16, i16, i16, i16, [33 x i8], [33 x i8], float, i16, i16, [2 x i16], i16, i32, i32, i16, [3 x i16], i16, i16, i16, i16, i16, i32, i16, [13 x i8], [5 x i8], [5 x i8], i32, i16, i32, i16, [9 x i16], [32 x i32], i32, i32, i32, [2 x float], i32 }
%struct.libraw_olympus_makernotes_t = type { [6 x i8], i16, [2 x i32], [5 x i16], i16, [2 x i16], i16, i16, [64 x i32], [5 x double], i16, i8, [3 x i16], [3 x i32], i16, i16, i16, i16, double, [4 x i16], [2 x i32], i8, i32, i16, i16 }
%struct.libraw_sony_info_t = type { i16, i8, i8, i32, i8, i32, i8, i8, i16, [2 x i16], i8, i8, i16, [10 x i8], i8, i8, [4 x i16], i16, i8, i8, i8, i16, i32, i16, [2 x i16], i16, i16, i16, i16, i16, i16, i16, i32, float, i16, i32, i32, i16, [20 x i8], i32, i16, i32, i8, i8, i16, i16, i16, i16, i16, i16, i16, i16, i16, i32, i16, [16 x i8], float }
%struct.libraw_kodak_makernotes_t = type { i16, i16, i16, i16, i16, i16, [3 x [3 x float]], [3 x [3 x float]], [3 x [3 x float]], [3 x [3 x float]], [3 x [3 x float]], [3 x [3 x float]], i16, i16, i16, i16, float, float }
%struct.libraw_panasonic_makernotes_t = type { i16, i16, [8 x float], i32, float, [3 x i32], i16, i16, i32, i32 }
%struct.libraw_pentax_makernotes_t = type { [4 x i8], [2 x i16], [2 x i16], i16, i32, i32, i16, i16, i8, i8, i16 }
%struct.libraw_p1_makernotes_t = type { [64 x i8], [64 x i8], [256 x i8], [64 x i8] }
%struct.libraw_ricoh_makernotes_t = type { i16, [2 x i32], [2 x i32], i16, i32, i32, i32, i32, i16, i16, i16, i16, i16, i16, double, double }
%struct.libraw_samsung_makernotes_t = type { [4 x i32], [4 x i32], [2 x i32], [11 x i32], double, i32, [32 x i8] }
%struct.libraw_metadata_common_t = type { float, float, float, float, float, float, float, float, float, float, float, float, float, float, float, float, i16, [128 x i8], float, [4 x %struct.libraw_afinfo_item_t], i32 }
%struct.libraw_afinfo_item_t = type { i32, i16, i32, i32, ptr }
%struct.libraw_shootinginfo_t = type { i16, i16, i16, i16, i16, i16, i16, [64 x i8], [64 x i8] }
%struct.libraw_output_params_t = type { [4 x i32], [4 x i32], [4 x double], [6 x double], [4 x float], float, float, i32, i32, i32, i32, i32, i32, i32, ptr, ptr, ptr, ptr, i32, i32, i32, i32, i32, i32, [4 x i32], i32, i32, float, float, i32, i32, i32, i32, i32, i32, i32, i32, float, float, i32, i32 }
%struct.libraw_raw_unpack_params_t = type { i32, i32, i32, i32, i32, i32, i32, float, [5 x i8], ptr }
%struct.libraw_colordata_t = type { [65536 x i16], [4104 x i32], i32, i32, i32, [4 x i64], float, float, [8 x [8 x i16]], [4 x float], [4 x float], [3 x [4 x float]], [3 x [4 x float]], [3 x [4 x float]], [4 x [3 x float]], %struct.ph1_t, float, float, [64 x i8], [64 x i8], [64 x i8], [64 x i8], [17 x i8], [64 x i8], ptr, i32, [8 x i32], [2 x %struct.libraw_dng_color_t], %struct.libraw_dng_levels_t, [256 x [4 x i32]], [64 x [5 x float]], i32, [2 x %struct.libraw_P1_color_t], i32, i32 }
%struct.ph1_t = type { i32, i32, i32, i32, i32, i32, i32, i32, float }
%struct.libraw_dng_color_t = type { i32, i16, [4 x [4 x float]], [4 x [3 x float]], [3 x [4 x float]] }
%struct.libraw_dng_levels_t = type { i32, [4104 x i32], i32, [4104 x float], float, [4 x i32], [4 x i16], [4 x float], i32, [4 x float], [4 x float], float, float }
%struct.libraw_P1_color_t = type { [9 x float] }
%struct.libraw_imgother_t = type { float, float, float, float, i64, i32, [32 x i32], %struct.libraw_gps_info_t, [512 x i8], [64 x i8], [4 x float] }
%struct.libraw_gps_info_t = type { [3 x float], [3 x float], [3 x float], float, i8, i8, i8, i8, i8 }
%struct.libraw_thumbnail_t = type { i32, i16, i16, i32, i32, ptr }
%struct.libraw_thumbnail_list_t = type { i32, [8 x %struct.libraw_thumbnail_item_t] }
%struct.libraw_thumbnail_item_t = type { i32, i16, i16, i16, i32, i32, i64 }
%struct.libraw_rawdata_t = type { ptr, ptr, ptr, ptr, ptr, ptr, ptr, ptr, ptr, %struct.libraw_iparams_t, %struct.libraw_image_sizes_t, %struct.libraw_internal_output_params_t, %struct.libraw_colordata_t }
%struct.libraw_internal_output_params_t = type { i32, i32, i32, i16, i16 }
%struct.libraw_internal_data_t = type { %struct.internal_data_t, %struct.libraw_internal_output_params_t, %struct.output_data_t, %struct.identify_data_t, %struct.unpacker_data_t }
%struct.internal_data_t = type { ptr, ptr, i32, ptr, i64, i64, [4 x i32] }
%struct.output_data_t = type { ptr, ptr }
%struct.identify_data_t = type { i32, i64, i64, i32, i32, i32 }
%struct.unpacker_data_t = type { i16, [4 x i16], [3 x i16], i32, i64, i64, i64, i64, i64, i64, i32, i32, i32, i32, i32, i32, i32, i32, i32, i32, i32, i32, i32, i32, i32, i32, i32, i64, i32, i32, i32, i32, i32, i32, i32, i32, i32, %struct.pana8_tags_t, [16 x %struct.crx_data_header_t], i32, i32, i16, i16, i32, i32, i32, i32, i32, i32, i32, [20 x i32], i16 }
%struct.pana8_tags_t = type { [6 x i32], [6 x i16], i16, [4 x i16], [17 x i16], [17 x i16], [17 x i16], i16, i16, [5 x i64], [5 x i16], [5 x i32], [5 x i16], [5 x i16] }
%struct.crx_data_header_t = type { i32, i32, i32, i32, i32, i32, i32, i32, i32, i32, i32, i32, i32, i32, i32, i64, i32, ptr, i32, i32, i32, ptr, i32, ptr }
%struct.decode = type { [2 x ptr], i32 }
%struct.tiff_ifd_t = type { i32, i32, i32, i32, i32, i32, i32, i32, i32, i32, i32, i32, i32, i32, i32, ptr, i32, ptr, i32, i32, i32, i32, i32, i32, i32, float, i64, i64, i32, [2 x %struct.libraw_dng_color_t], %struct.libraw_dng_levels_t, i32 }
%class.libraw_memmgr = type <{ ptr, i32, [4 x i8] }>
%struct.libraw_callbacks_t = type { ptr, ptr, ptr, ptr, ptr, ptr, ptr, ptr, ptr, ptr, ptr, ptr, ptr, ptr, ptr, ptr, ptr }

@.str = private unnamed_addr constant [4 x i8] c"N/A\00", align 1
@.str.1 = private unnamed_addr constant [5 x i8] c"not \00", align 1
@.str.2 = private unnamed_addr constant [4 x i8] c"---\00", align 1
@.str.3 = private unnamed_addr constant [4 x i8] c"***\00", align 1

; Function Attrs: mustprogress uwtable
define noundef i32 @_ZN6LibRaw18parseLeicaLensNameEj(ptr noundef nonnull align 8 dereferenceable(767680) %0, i32 noundef %1) #1 align 2 {
  %3 = alloca i32, align 4
  %4 = alloca ptr, align 8
  %5 = alloca i32, align 4
  store ptr %0, ptr %4, align 8, !tbaa !6
  store i32 %1, ptr %5, align 4, !tbaa !11
  %6 = load ptr, ptr %4, align 8
  %7 = load i32, ptr %5, align 4, !tbaa !11
  %8 = icmp ne i32 %7, 0
  br i1 %8, label %16, label %9

9:                                                ; preds = %2
  %10 = getelementptr inbounds nuw %class.LibRaw, ptr %6, i32 0, i32 1
  %11 = getelementptr inbounds nuw %struct.libraw_data_t, ptr %10, i32 0, i32 3
  %12 = getelementptr inbounds nuw %struct.libraw_lensinfo_t, ptr %11, i32 0, i32 12
  %13 = getelementptr inbounds nuw %struct.libraw_makernotes_lens_t, ptr %12, i32 0, i32 1
  %14 = getelementptr inbounds [128 x i8], ptr %13, i64 0, i64 0
  %15 = call ptr @strcpy(ptr noundef %14, ptr noundef @.str) #9
  store i32 0, ptr %3, align 4
  br label %76

16:                                               ; preds = %2
  %17 = getelementptr inbounds nuw %class.LibRaw, ptr %6, i32 0, i32 1
  %18 = getelementptr inbounds nuw %struct.libraw_data_t, ptr %17, i32 0, i32 3
  %19 = getelementptr inbounds nuw %struct.libraw_lensinfo_t, ptr %18, i32 0, i32 12
  %20 = getelementptr inbounds nuw %struct.libraw_makernotes_lens_t, ptr %19, i32 0, i32 1
  %21 = getelementptr inbounds [128 x i8], ptr %20, i64 0, i64 0
  %22 = load i32, ptr %5, align 4, !tbaa !11
  %23 = zext i32 %22 to i64
  %24 = icmp ult i64 %23, 128
  br i1 %24, label %25, label %28

25:                                               ; preds = %16
  %26 = load i32, ptr %5, align 4, !tbaa !11
  %27 = zext i32 %26 to i64
  br label %29

28:                                               ; preds = %16
  br label %29

29:                                               ; preds = %28, %25
  %30 = phi i64 [ %27, %25 ], [ 128, %28 ]
  %31 = getelementptr inbounds nuw %class.LibRaw, ptr %6, i32 0, i32 3
  %32 = getelementptr inbounds nuw %struct.libraw_internal_data_t, ptr %31, i32 0, i32 0
  %33 = getelementptr inbounds nuw %struct.internal_data_t, ptr %32, i32 0, i32 0
  %34 = load ptr, ptr %33, align 8, !tbaa !80
  %35 = call noundef i32 @_ZN6LibRaw6streadEPcmP26LibRaw_abstract_datastream(ptr noundef %21, i64 noundef %30, ptr noundef %34)
  %36 = getelementptr inbounds nuw %class.LibRaw, ptr %6, i32 0, i32 1
  %37 = getelementptr inbounds nuw %struct.libraw_data_t, ptr %36, i32 0, i32 3
  %38 = getelementptr inbounds nuw %struct.libraw_lensinfo_t, ptr %37, i32 0, i32 12
  %39 = getelementptr inbounds nuw %struct.libraw_makernotes_lens_t, ptr %38, i32 0, i32 1
  %40 = getelementptr inbounds [128 x i8], ptr %39, i64 0, i64 0
  %41 = load i8, ptr %40, align 8, !tbaa !75
  %42 = sext i8 %41 to i32
  %43 = icmp eq i32 %42, 32
  br i1 %43, label %68, label %44

44:                                               ; preds = %29
  %45 = getelementptr inbounds nuw %class.LibRaw, ptr %6, i32 0, i32 1
  %46 = getelementptr inbounds nuw %struct.libraw_data_t, ptr %45, i32 0, i32 3
  %47 = getelementptr inbounds nuw %struct.libraw_lensinfo_t, ptr %46, i32 0, i32 12
  %48 = getelementptr inbounds nuw %struct.libraw_makernotes_lens_t, ptr %47, i32 0, i32 1
  %49 = getelementptr inbounds [128 x i8], ptr %48, i64 0, i64 0
  %50 = call i32 @strncasecmp(ptr noundef %49, ptr noundef @.str.1, i64 noundef 4) #10
  %51 = icmp ne i32 %50, 0
  br i1 %51, label %52, label %68

52:                                               ; preds = %44
  %53 = getelementptr inbounds nuw %class.LibRaw, ptr %6, i32 0, i32 1
  %54 = getelementptr inbounds nuw %struct.libraw_data_t, ptr %53, i32 0, i32 3
  %55 = getelementptr inbounds nuw %struct.libraw_lensinfo_t, ptr %54, i32 0, i32 12
  %56 = getelementptr inbounds nuw %struct.libraw_makernotes_lens_t, ptr %55, i32 0, i32 1
  %57 = getelementptr inbounds [128 x i8], ptr %56, i64 0, i64 0
  %58 = call i32 @strncmp(ptr noundef %57, ptr noundef @.str.2, i64 noundef 3) #10
  %59 = icmp ne i32 %58, 0
  br i1 %59, label %60, label %68

60:                                               ; preds = %52
  %61 = getelementptr inbounds nuw %class.LibRaw, ptr %6, i32 0, i32 1
  %62 = getelementptr inbounds nuw %struct.libraw_data_t, ptr %61, i32 0, i32 3
  %63 = getelementptr inbounds nuw %struct.libraw_lensinfo_t, ptr %62, i32 0, i32 12
  %64 = getelementptr inbounds nuw %struct.libraw_makernotes_lens_t, ptr %63, i32 0, i32 1
  %65 = getelementptr inbounds [128 x i8], ptr %64, i64 0, i64 0
  %66 = call i32 @strncmp(ptr noundef %65, ptr noundef @.str.3, i64 noundef 3) #10
  %67 = icmp ne i32 %66, 0
  br i1 %67, label %75, label %68

68:                                               ; preds = %60, %52, %44, %29
  %69 = getelementptr inbounds nuw %class.LibRaw, ptr %6, i32 0, i32 1
  %70 = getelementptr inbounds nuw %struct.libraw_data_t, ptr %69, i32 0, i32 3
  %71 = getelementptr inbounds nuw %struct.libraw_lensinfo_t, ptr %70, i32 0, i32 12
  %72 = getelementptr inbounds nuw %struct.libraw_makernotes_lens_t, ptr %71, i32 0, i32 1
  %73 = getelementptr inbounds [128 x i8], ptr %72, i64 0, i64 0
  %74 = call ptr @strcpy(ptr noundef %73, ptr noundef @.str) #9
  store i32 0, ptr %3, align 4
  br label %76

75:                                               ; preds = %60
  store i32 1, ptr %3, align 4
  br label %76

76:                                               ; preds = %75, %68, %9
  %77 = load i32, ptr %3, align 4
  ret i32 %77
}