; Function Attrs: mustprogress uwtable
define noundef range(i32 0, 2) i32 @_ZN6LibRaw18parseLeicaLensNameEj(ptr noundef nonnull align 8 dereferenceable(767680) %0, i32 noundef %1) local_unnamed_addr #1 align 2 {
  %.not = icmp eq i32 %1, 0
  %3 = getelementptr inbounds nuw i8, ptr %0, i64 1208
  br i1 %.not, label %.sink.split, label %4

4:                                                ; preds = %2
  %5 = tail call i32 @llvm.umin.i32(i32 %1, i32 128)
  %6 = zext nneg i32 %5 to i64
  %7 = getelementptr inbounds nuw i8, ptr %0, i64 381416
  %8 = load ptr, ptr %7, align 8, !tbaa !77
  %9 = tail call noundef i32 @_ZN6LibRaw6streadEPcmP26LibRaw_abstract_datastream(ptr noundef nonnull %3, i64 noundef %6, ptr noundef %8)
  %10 = load i8, ptr %3, align 8, !tbaa !72
  %11 = icmp eq i8 %10, 32
  br i1 %11, label %.sink.split, label %12

12:                                               ; preds = %4
  %13 = tail call i32 @strncasecmp(ptr noundef nonnull %3, ptr noundef nonnull @.str.1, i64 noundef 4) #9
  %.not5 = icmp eq i32 %13, 0
  br i1 %.not5, label %.sink.split, label %14

14:                                               ; preds = %12
  %bcmp = tail call i32 @bcmp(ptr noundef nonnull dereferenceable(3) %3, ptr noundef nonnull dereferenceable(3) @.str.2, i64 3)
  %.not6 = icmp eq i32 %bcmp, 0
  br i1 %.not6, label %.sink.split, label %15

15:                                               ; preds = %14
  %bcmp7 = tail call i32 @bcmp(ptr noundef nonnull dereferenceable(3) %3, ptr noundef nonnull dereferenceable(3) @.str.3, i64 3)
  %.not8 = icmp eq i32 %bcmp7, 0
  br i1 %.not8, label %.sink.split, label %16

.sink.split:                                      ; preds = %4, %12, %14, %15, %2
  store i32 4271950, ptr %3, align 8
  br label %16

16:                                               ; preds = %.sink.split, %15
  %.0 = phi i32 [ 1, %15 ], [ 0, %.sink.split ]
  ret i32 %.0
}